target datalayout = "e-m:e-p270:32:32-p271:32:32-p272:64:64-i64:64-i128:128-f80:128-n8:16:32:64-S128"
target triple = "x86_64-pc-linux-gnu"

%struct.ASN1_TEMPLATE_st = type { i64, i64, i64, ptr, ptr }

; Function Attrs: inlinehint nounwind uwtable
define internal ptr @ossl_check_ASN1_VALUE_sk_type(ptr noundef %0) #4 {
  %2 = alloca ptr, align 8
  store ptr %0, ptr %2, align 8, !tbaa !36
  %3 = load ptr, ptr %2, align 8, !tbaa !36
  ret ptr %3
}

; Function Attrs: inlinehint nounwind uwtable
define internal ptr @ossl_check_const_ASN1_VALUE_sk_type(ptr noundef %0) #4 {
  %2 = alloca ptr, align 8
  store ptr %0, ptr %2, align 8, !tbaa !36
  %3 = load ptr, ptr %2, align 8, !tbaa !36
  ret ptr %3
}

; Function Attrs: nounwind uwtable
define void @ossl_asn1_template_free(ptr noundef %0, ptr noundef %1) #0 {
  %3 = alloca ptr, align 8
  %4 = alloca ptr, align 8
  %5 = alloca i32, align 4
  %6 = alloca ptr, align 8
  %7 = alloca ptr, align 8
  %8 = alloca i32, align 4
  %9 = alloca ptr, align 8
  store ptr %0, ptr %3, align 8, !tbaa !10
  store ptr %1, ptr %4, align 8, !tbaa !14
  call void @llvm.lifetime.start.p0(i64 4, ptr %5) #5
  %10 = load ptr, ptr %4, align 8, !tbaa !14
  %11 = getelementptr inbounds nuw %struct.ASN1_TEMPLATE_st, ptr %10, i32 0, i32 0
  %12 = load i64, ptr %11, align 8, !tbaa !34
  %13 = and i64 %12, 4096
  %14 = trunc i64 %13 to i32
  store i32 %14, ptr %5, align 4, !tbaa !12
  call void @llvm.lifetime.start.p0(i64 8, ptr %6) #5
  %15 = load i32, ptr %5, align 4, !tbaa !12
  %16 = icmp ne i32 %15, 0
  br i1 %16, label %17, label %19

17:                                               ; preds = %2
  %18 = load ptr, ptr %3, align 8, !tbaa !10
  store ptr %18, ptr %6, align 8, !tbaa !3
  store ptr %6, ptr %3, align 8, !tbaa !10
  br label %19

19:                                               ; preds = %17, %2
  %20 = load ptr, ptr %4, align 8, !tbaa !14
  %21 = getelementptr inbounds nuw %struct.ASN1_TEMPLATE_st, ptr %20, i32 0, i32 0
  %22 = load i64, ptr %21, align 8, !tbaa !34
  %23 = and i64 %22, 6
  %24 = icmp ne i64 %23, 0
  br i1 %24, label %25, label %51

25:                                               ; preds = %19
  call void @llvm.lifetime.start.p0(i64 8, ptr %7) #5
  %26 = load ptr, ptr %3, align 8, !tbaa !10
  %27 = load ptr, ptr %26, align 8, !tbaa !3
  store ptr %27, ptr %7, align 8, !tbaa !36
  call void @llvm.lifetime.start.p0(i64 4, ptr %8) #5
  store i32 0, ptr %8, align 4, !tbaa !12
  br label %28

28:                                               ; preds = %44, %25
  %29 = load i32, ptr %8, align 4, !tbaa !12
  %30 = load ptr, ptr %7, align 8, !tbaa !36
  %31 = call ptr @ossl_check_const_ASN1_VALUE_sk_type(ptr noundef %30)
  %32 = call i32 @OPENSSL_sk_num(ptr noundef %31)
  %33 = icmp slt i32 %29, %32
  br i1 %33, label %34, label %47

34:                                               ; preds = %28
  call void @llvm.lifetime.start.p0(i64 8, ptr %9) #5
  %35 = load ptr, ptr %7, align 8, !tbaa !36
  %36 = call ptr @ossl_check_const_ASN1_VALUE_sk_type(ptr noundef %35)
  %37 = load i32, ptr %8, align 4, !tbaa !12
  %38 = call ptr @OPENSSL_sk_value(ptr noundef %36, i32 noundef %37)
  store ptr %38, ptr %9, align 8, !tbaa !3
  %39 = load ptr, ptr %4, align 8, !tbaa !14
  %40 = getelementptr inbounds nuw %struct.ASN1_TEMPLATE_st, ptr %39, i32 0, i32 4
  %41 = load ptr, ptr %40, align 8, !tbaa !38
  %42 = call ptr %41()
  %43 = load i32, ptr %5, align 4, !tbaa !12
  call void @ossl_asn1_item_embed_free(ptr noundef %9, ptr noundef %42, i32 noundef %43)
  call void @llvm.lifetime.end.p0(i64 8, ptr %9) #5
  br label %44

44:                                               ; preds = %34
  %45 = load i32, ptr %8, align 4, !tbaa !12
  %46 = add nsw i32 %45, 1
  store i32 %46, ptr %8, align 4, !tbaa !12
  br label %28, !llvm.loop !39

47:                                               ; preds = %28
  %48 = load ptr, ptr %7, align 8, !tbaa !36
  %49 = call ptr @ossl_check_ASN1_VALUE_sk_type(ptr noundef %48)
  call void @OPENSSL_sk_free(ptr noundef %49)
  %50 = load ptr, ptr %3, align 8, !tbaa !10
  store ptr null, ptr %50, align 8, !tbaa !3
  call void @llvm.lifetime.end.p0(i64 4, ptr %8) #5
  call void @llvm.lifetime.end.p0(i64 8, ptr %7) #5
  br label %58

51:                                               ; preds = %19
  %52 = load ptr, ptr %3, align 8, !tbaa !10
  %53 = load ptr, ptr %4, align 8, !tbaa !14
  %54 = getelementptr inbounds nuw %struct.ASN1_TEMPLATE_st, ptr %53, i32 0, i32 4
  %55 = load ptr, ptr %54, align 8, !tbaa !38
  %56 = call ptr %55()
  %57 = load i32, ptr %5, align 4, !tbaa !12
  call void @ossl_asn1_item_embed_free(ptr noundef %52, ptr noundef %56, i32 noundef %57)
  br label %58

58:                                               ; preds = %51, %47
  call void @llvm.lifetime.end.p0(i64 8, ptr %6) #5
  call void @llvm.lifetime.end.p0(i64 4, ptr %5) #5
  ret void
}