; Function Attrs: nounwind uwtable
define void @ossl_asn1_template_free(ptr noundef %0, ptr noundef readonly captures(none) %1) local_unnamed_addr #0 {
  %3 = alloca ptr, align 8
  %4 = alloca ptr, align 8
  %5 = load i64, ptr %1, align 8, !tbaa !23
  %6 = trunc i64 %5 to i32
  %7 = and i32 %6, 4096
  call void @llvm.lifetime.start.p0(i64 8, ptr nonnull %3) #4
  %.not = icmp eq i32 %7, 0
  br i1 %.not, label %9, label %8

8:                                                ; preds = %2
  store ptr %0, ptr %3, align 8, !tbaa !3
  br label %9

9:                                                ; preds = %8, %2
  %.016 = phi ptr [ %3, %8 ], [ %0, %2 ]
  %10 = and i64 %5, 6
  %.not17 = icmp eq i64 %10, 0
  br i1 %.not17, label %23, label %11

11:                                               ; preds = %9
  %12 = load ptr, ptr %.016, align 8, !tbaa !3
  %13 = tail call i32 @OPENSSL_sk_num(ptr noundef %12) #4
  %14 = icmp sgt i32 %13, 0
  br i1 %14, label %.lr.ph, label %._crit_edge

.lr.ph:                                           ; preds = %11
  %15 = getelementptr inbounds nuw i8, ptr %1, i64 32
  br label %16

16:                                               ; preds = %.lr.ph, %16
  %.018 = phi i32 [ 0, %.lr.ph ], [ %20, %16 ]
  call void @llvm.lifetime.start.p0(i64 8, ptr nonnull %4) #4
  %17 = call ptr @OPENSSL_sk_value(ptr noundef %12, i32 noundef %.018) #4
  store ptr %17, ptr %4, align 8, !tbaa !3
  %18 = load ptr, ptr %15, align 8, !tbaa !25
  %19 = call ptr %18() #4
  call void @ossl_asn1_item_embed_free(ptr noundef nonnull %4, ptr noundef %19, i32 noundef %7)
  call void @llvm.lifetime.end.p0(i64 8, ptr nonnull %4) #4
  %20 = add nuw nsw i32 %.018, 1
  %21 = call i32 @OPENSSL_sk_num(ptr noundef %12) #4
  %22 = icmp slt i32 %20, %21
  br i1 %22, label %16, label %._crit_edge, !llvm.loop !26

._crit_edge:                                      ; preds = %16, %11
  call void @OPENSSL_sk_free(ptr noundef %12) #4
  store ptr null, ptr %.016, align 8, !tbaa !3
  br label %27

23:                                               ; preds = %9
  %24 = getelementptr inbounds nuw i8, ptr %1, i64 32
  %25 = load ptr, ptr %24, align 8, !tbaa !25
  %26 = tail call ptr %25() #4
  call void @ossl_asn1_item_embed_free(ptr noundef %.016, ptr noundef %26, i32 noundef %7)
  br label %27

27:                                               ; preds = %23, %._crit_edge
  call void @llvm.lifetime.end.p0(i64 8, ptr nonnull %3) #4
  ret void
}